; ModuleID = 'source-C-CXX/18/807.c'
source_filename = "source-C-CXX/18/807.c"
target datalayout = "e-m:e-p270:32:32-p271:32:32-p272:64:64-i64:64-f80:128-n8:16:32:64-S128"
target triple = "x86_64-pc-linux-gnu"

@.str = private unnamed_addr constant [3 x i8] c"%s\00", align 1
@.str.1 = private unnamed_addr constant [4 x i8] c" %s\00", align 1

; Function Attrs: nounwind sspstrong uwtable
define dso_local i32 @main() local_unnamed_addr #0 {
  %1 = tail call noalias align 16 dereferenceable_or_null(1000) i8* @malloc(i64 1000) #5
  %2 = tail call i32 (i8*, ...) bitcast (i32 (...)* @gets to i32 (i8*, ...)*)(i8* %1) #5
  %3 = tail call noalias align 16 dereferenceable_or_null(100) i8* @malloc(i64 100) #5
  %4 = tail call noalias align 16 dereferenceable_or_null(100) i8* @malloc(i64 100) #5
  %5 = tail call noalias align 16 dereferenceable_or_null(100) i8* @malloc(i64 100) #5
  %6 = tail call i32 (i8*, ...) bitcast (i32 (...)* @gets to i32 (i8*, ...)*)(i8* %3) #5
  %7 = tail call i32 (i8*, ...) bitcast (i32 (...)* @gets to i32 (i8*, ...)*)(i8* %4) #5
  %8 = tail call i64 @strlen(i8* noundef nonnull dereferenceable(1) %1) #6
  %9 = trunc i64 %8 to i32
  %10 = tail call i32 (i8*, i8*, ...) @__isoc99_sscanf(i8* %1, i8* getelementptr inbounds ([3 x i8], [3 x i8]* @.str, i64 0, i64 0), i8* %5) #5
  %11 = tail call i64 @strlen(i8* noundef nonnull dereferenceable(1) %5) #6
  %12 = trunc i64 %11 to i32
  %13 = tail call i32 @strcmp(i8* noundef nonnull dereferenceable(1) %3, i8* noundef nonnull dereferenceable(1) %5) #6
  %14 = icmp eq i32 %13, 0
  %15 = select i1 %14, i8* %4, i8* %5
  %16 = tail call i32 (i8*, ...) @printf(i8* nonnull dereferenceable(1) getelementptr inbounds ([3 x i8], [3 x i8]* @.str, i64 0, i64 0), i8* %15)
  %17 = xor i32 %12, -1
  %18 = add i32 %17, %9
  %19 = icmp sgt i32 %18, -1
  br i1 %19, label %20, label %42

20:                                               ; preds = %0
  %21 = shl i64 %11, 32
  %22 = ashr exact i64 %21, 32
  %23 = add nsw i64 %22, 1
  %24 = getelementptr inbounds i8, i8* %1, i64 %23
  br label %25

25:                                               ; preds = %20, %25
  %26 = phi i8* [ %38, %25 ], [ %24, %20 ]
  %27 = phi i32 [ %40, %25 ], [ %18, %20 ]
  %28 = tail call i32 (i8*, i8*, ...) @__isoc99_sscanf(i8* %26, i8* getelementptr inbounds ([3 x i8], [3 x i8]* @.str, i64 0, i64 0), i8* %5) #5
  %29 = tail call i64 @strlen(i8* noundef nonnull dereferenceable(1) %5) #6
  %30 = trunc i64 %29 to i32
  %31 = tail call i32 @strcmp(i8* noundef nonnull dereferenceable(1) %3, i8* noundef nonnull dereferenceable(1) %5) #6
  %32 = icmp eq i32 %31, 0
  %33 = select i1 %32, i8* %4, i8* %5
  %34 = tail call i32 (i8*, ...) @printf(i8* nonnull dereferenceable(1) getelementptr inbounds ([4 x i8], [4 x i8]* @.str.1, i64 0, i64 0), i8* %33)
  %35 = shl i64 %29, 32
  %36 = ashr exact i64 %35, 32
  %37 = add nsw i64 %36, 1
  %38 = getelementptr inbounds i8, i8* %26, i64 %37
  %39 = xor i32 %30, -1
  %40 = add i32 %27, %39
  %41 = icmp sgt i32 %40, -1
  br i1 %41, label %25, label %42, !llvm.loop !5

42:                                               ; preds = %25, %0
  ret i32 0
}

; Function Attrs: inaccessiblememonly mustprogress nofree nounwind willreturn
declare noalias noundef align 16 i8* @malloc(i64 noundef) local_unnamed_addr #1

declare i32 @gets(...) local_unnamed_addr #2

; Function Attrs: argmemonly mustprogress nofree nounwind readonly willreturn
declare i64 @strlen(i8* nocapture) local_unnamed_addr #3

; Function Attrs: nofree nounwind
declare noundef i32 @__isoc99_sscanf(i8* nocapture noundef readonly, i8* nocapture noundef readonly, ...) local_unnamed_addr #4

; Function Attrs: argmemonly mustprogress nofree nounwind readonly willreturn
declare i32 @strcmp(i8* nocapture, i8* nocapture) local_unnamed_addr #3

; Function Attrs: nofree nounwind
declare noundef i32 @printf(i8* nocapture noundef readonly, ...) local_unnamed_addr #4


!llvm.module.flags = !{!0, !1, !2, !3}
!llvm.ident = !{!4}

!0 = !{i32 1, !"wchar_size", i32 4}
!1 = !{i32 7, !"PIC Level", i32 2}
!2 = !{i32 7, !"PIE Level", i32 2}
!3 = !{i32 7, !"uwtable", i32 1}
!4 = !{!"clang version 13.0.0"}
!5 = distinct !{!5, !6}
!6 = !{!"llvm.loop.mustprogress"}
